target datalayout = "e-m:e-p270:32:32-p271:32:32-p272:64:64-i64:64-i128:128-f80:128-n8:16:32:64-S128"
target triple = "x86_64-pc-linux-gnu"

%struct.GISTBuildBuffers = type { ptr, ptr, i64, ptr, i32, i32, ptr, ptr, i32, i32, ptr, i32, ptr, i32, i32, i32 }
%struct.GISTNodeBuffer = type { i32, i32, i32, ptr, i8, i8, i32 }

@.str.1 = private unnamed_addr constant [46 x i8] c"could not seek to block %ld in temporary file\00", align 1
@.str.2 = private unnamed_addr constant [19 x i8] c"gistbuildbuffers.c\00", align 1
@__func__.WriteTempFileBlock = private unnamed_addr constant [19 x i8] c"WriteTempFileBlock\00", align 1

; Function Attrs: nounwind uwtable
define internal void @WriteTempFileBlock(ptr noundef %0, i64 noundef %1, ptr noundef %2) #0 {
  %4 = alloca ptr, align 8
  %5 = alloca i64, align 8
  %6 = alloca ptr, align 8
  store ptr %0, ptr %4, align 8
  store i64 %1, ptr %5, align 8
  store ptr %2, ptr %6, align 8
  %7 = load ptr, ptr %4, align 8
  %8 = load i64, ptr %5, align 8
  %9 = call i32 @BufFileSeekBlock(ptr noundef %7, i64 noundef %8)
  %10 = icmp ne i32 %9, 0
  br i1 %10, label %11, label %22

11:                                               ; preds = %3
  br label %12

12:                                               ; preds = %11
  br i1 true, label %13, label %15

13:                                               ; preds = %12
  %14 = call zeroext i1 @errstart_cold(i32 noundef 21, ptr noundef null) #8
  br i1 %14, label %17, label %20

15:                                               ; preds = %12
  %16 = call zeroext i1 @errstart(i32 noundef 21, ptr noundef null)
  br i1 %16, label %17, label %20

17:                                               ; preds = %15, %13
  %18 = load i64, ptr %5, align 8
  %19 = call i32 (ptr, ...) @errmsg_internal(ptr noundef @.str.1, i64 noundef %18)
  call void @errfinish(ptr noundef @.str.2, i32 noundef 761, ptr noundef @__func__.WriteTempFileBlock)
  br label %20

20:                                               ; preds = %17, %15, %13
  unreachable

21:                                               ; No predecessors!
  br label %22

22:                                               ; preds = %21, %3
  %23 = load ptr, ptr %4, align 8
  %24 = load ptr, ptr %6, align 8
  call void @BufFileWrite(ptr noundef %23, ptr noundef %24, i64 noundef 8192)
  ret void
}

; Function Attrs: nounwind uwtable
define internal i64 @gistBuffersGetFreeBlock(ptr noundef %0) #0 {
  %2 = alloca i64, align 8
  %3 = alloca ptr, align 8
  store ptr %0, ptr %3, align 8
  %4 = load ptr, ptr %3, align 8
  %5 = getelementptr inbounds nuw %struct.GISTBuildBuffers, ptr %4, i32 0, i32 4
  %6 = load i32, ptr %5, align 8
  %7 = icmp sgt i32 %6, 0
  br i1 %7, label %8, label %19

8:                                                ; preds = %1
  %9 = load ptr, ptr %3, align 8
  %10 = getelementptr inbounds nuw %struct.GISTBuildBuffers, ptr %9, i32 0, i32 3
  %11 = load ptr, ptr %10, align 8
  %12 = load ptr, ptr %3, align 8
  %13 = getelementptr inbounds nuw %struct.GISTBuildBuffers, ptr %12, i32 0, i32 4
  %14 = load i32, ptr %13, align 8
  %15 = add i32 %14, -1
  store i32 %15, ptr %13, align 8
  %16 = sext i32 %15 to i64
  %17 = getelementptr inbounds i64, ptr %11, i64 %16
  %18 = load i64, ptr %17, align 8
  store i64 %18, ptr %2, align 8
  br label %24

19:                                               ; preds = %1
  %20 = load ptr, ptr %3, align 8
  %21 = getelementptr inbounds nuw %struct.GISTBuildBuffers, ptr %20, i32 0, i32 2
  %22 = load i64, ptr %21, align 8
  %23 = add i64 %22, 1
  store i64 %23, ptr %21, align 8
  store i64 %22, ptr %2, align 8
  br label %24

24:                                               ; preds = %19, %8
  %25 = load i64, ptr %2, align 8
  ret i64 %25
}

; Function Attrs: nounwind uwtable
define internal void @gistUnloadNodeBuffer(ptr noundef %0, ptr noundef %1) #0 {
  %3 = alloca ptr, align 8
  %4 = alloca ptr, align 8
  %5 = alloca i32, align 4
  store ptr %0, ptr %3, align 8
  store ptr %1, ptr %4, align 8
  %6 = load ptr, ptr %4, align 8
  %7 = getelementptr inbounds nuw %struct.GISTNodeBuffer, ptr %6, i32 0, i32 3
  %8 = load ptr, ptr %7, align 8
  %9 = icmp ne ptr %8, null
  br i1 %9, label %10, label %30

10:                                               ; preds = %2
  call void @llvm.lifetime.start.p0(i64 4, ptr %5) #7
  %11 = load ptr, ptr %3, align 8
  %12 = call i64 @gistBuffersGetFreeBlock(ptr noundef %11)
  %13 = trunc i64 %12 to i32
  store i32 %13, ptr %5, align 4
  %14 = load ptr, ptr %3, align 8
  %15 = getelementptr inbounds nuw %struct.GISTBuildBuffers, ptr %14, i32 0, i32 1
  %16 = load ptr, ptr %15, align 8
  %17 = load i32, ptr %5, align 4
  %18 = zext i32 %17 to i64
  %19 = load ptr, ptr %4, align 8
  %20 = getelementptr inbounds nuw %struct.GISTNodeBuffer, ptr %19, i32 0, i32 3
  %21 = load ptr, ptr %20, align 8
  call void @WriteTempFileBlock(ptr noundef %16, i64 noundef %18, ptr noundef %21)
  %22 = load ptr, ptr %4, align 8
  %23 = getelementptr inbounds nuw %struct.GISTNodeBuffer, ptr %22, i32 0, i32 3
  %24 = load ptr, ptr %23, align 8
  call void @pfree(ptr noundef %24)
  %25 = load ptr, ptr %4, align 8
  %26 = getelementptr inbounds nuw %struct.GISTNodeBuffer, ptr %25, i32 0, i32 3
  store ptr null, ptr %26, align 8
  %27 = load i32, ptr %5, align 4
  %28 = load ptr, ptr %4, align 8
  %29 = getelementptr inbounds nuw %struct.GISTNodeBuffer, ptr %28, i32 0, i32 2
  store i32 %27, ptr %29, align 8
  call void @llvm.lifetime.end.p0(i64 4, ptr %5) #7
  br label %30

30:                                               ; preds = %10, %2
  ret void
}

; Function Attrs: nounwind uwtable
define dso_local void @gistUnloadNodeBuffers(ptr noundef %0) #0 {
  %2 = alloca ptr, align 8
  %3 = alloca i32, align 4
  store ptr %0, ptr %2, align 8
  call void @llvm.lifetime.start.p0(i64 4, ptr %3) #7
  store i32 0, ptr %3, align 4
  br label %4

4:                                                ; preds = %19, %1
  %5 = load i32, ptr %3, align 4
  %6 = load ptr, ptr %2, align 8
  %7 = getelementptr inbounds nuw %struct.GISTBuildBuffers, ptr %6, i32 0, i32 13
  %8 = load i32, ptr %7, align 8
  %9 = icmp slt i32 %5, %8
  br i1 %9, label %10, label %22

10:                                               ; preds = %4
  %11 = load ptr, ptr %2, align 8
  %12 = load ptr, ptr %2, align 8
  %13 = getelementptr inbounds nuw %struct.GISTBuildBuffers, ptr %12, i32 0, i32 12
  %14 = load ptr, ptr %13, align 8
  %15 = load i32, ptr %3, align 4
  %16 = sext i32 %15 to i64
  %17 = getelementptr inbounds ptr, ptr %14, i64 %16
  %18 = load ptr, ptr %17, align 8
  call void @gistUnloadNodeBuffer(ptr noundef %11, ptr noundef %18)
  br label %19

19:                                               ; preds = %10
  %20 = load i32, ptr %3, align 4
  %21 = add i32 %20, 1
  store i32 %21, ptr %3, align 4
  br label %4, !llvm.loop !8

22:                                               ; preds = %4
  %23 = load ptr, ptr %2, align 8
  %24 = getelementptr inbounds nuw %struct.GISTBuildBuffers, ptr %23, i32 0, i32 13
  store i32 0, ptr %24, align 8
  call void @llvm.lifetime.end.p0(i64 4, ptr %3) #7
  ret void
}