; Function Attrs: nounwind uwtable
define dso_local void @gistUnloadNodeBuffers(ptr noundef captures(none) %0) local_unnamed_addr #0 {
  %2 = getelementptr inbounds nuw i8, ptr %0, i64 88
  %3 = load i32, ptr %2, align 8
  %4 = icmp sgt i32 %3, 0
  br i1 %4, label %.lr.ph, label %._crit_edge

.lr.ph:                                           ; preds = %1
  %5 = getelementptr inbounds nuw i8, ptr %0, i64 80
  %6 = getelementptr inbounds nuw i8, ptr %0, i64 32
  %7 = getelementptr inbounds nuw i8, ptr %0, i64 16
  %8 = getelementptr inbounds nuw i8, ptr %0, i64 24
  %9 = getelementptr inbounds nuw i8, ptr %0, i64 8
  br label %10

10:                                               ; preds = %.lr.ph, %gistUnloadNodeBuffer.exit
  %11 = phi i32 [ %3, %.lr.ph ], [ %39, %gistUnloadNodeBuffer.exit ]
  %indvars.iv = phi i64 [ 0, %.lr.ph ], [ %indvars.iv.next, %gistUnloadNodeBuffer.exit ]
  %12 = load ptr, ptr %5, align 8
  %13 = getelementptr inbounds nuw ptr, ptr %12, i64 %indvars.iv
  %14 = load ptr, ptr %13, align 8
  %15 = getelementptr inbounds nuw i8, ptr %14, i64 16
  %16 = load ptr, ptr %15, align 8
  %.not.i = icmp eq ptr %16, null
  br i1 %.not.i, label %gistUnloadNodeBuffer.exit, label %17

17:                                               ; preds = %10
  %18 = load i32, ptr %6, align 8
  %19 = icmp sgt i32 %18, 0
  br i1 %19, label %20, label %26

20:                                               ; preds = %17
  %21 = load ptr, ptr %8, align 8
  %22 = add nsw i32 %18, -1
  store i32 %22, ptr %6, align 8
  %23 = zext nneg i32 %22 to i64
  %24 = getelementptr inbounds nuw i64, ptr %21, i64 %23
  %25 = load i64, ptr %24, align 8
  br label %gistBuffersGetFreeBlock.exit.i

26:                                               ; preds = %17
  %27 = load i64, ptr %7, align 8
  %28 = add i64 %27, 1
  store i64 %28, ptr %7, align 8
  br label %gistBuffersGetFreeBlock.exit.i

gistBuffersGetFreeBlock.exit.i:                   ; preds = %26, %20
  %.0.i.i = phi i64 [ %25, %20 ], [ %27, %26 ]
  %29 = load ptr, ptr %9, align 8
  %30 = and i64 %.0.i.i, 4294967295
  %31 = load ptr, ptr %15, align 8
  %32 = tail call i32 @BufFileSeekBlock(ptr noundef %29, i64 noundef range(i64 0, 4294967296) %30) #6
  %.not.i.i = icmp eq i32 %32, 0
  br i1 %.not.i.i, label %WriteTempFileBlock.exit.i, label %33

33:                                               ; preds = %gistBuffersGetFreeBlock.exit.i
  %34 = tail call zeroext i1 @errstart_cold(i32 noundef 21, ptr noundef null) #7
  tail call void @llvm.assume(i1 %34)
  %35 = tail call i32 (ptr, ...) @errmsg_internal(ptr noundef nonnull @.str.1, i64 noundef range(i64 0, 4294967296) %30) #6
  tail call void @errfinish(ptr noundef nonnull @.str.2, i32 noundef 761, ptr noundef nonnull @__func__.WriteTempFileBlock) #6
  unreachable

WriteTempFileBlock.exit.i:                        ; preds = %gistBuffersGetFreeBlock.exit.i
  %36 = trunc i64 %.0.i.i to i32
  tail call void @BufFileWrite(ptr noundef %29, ptr noundef %31, i64 noundef 8192) #6
  %37 = load ptr, ptr %15, align 8
  tail call void @pfree(ptr noundef %37) #6
  store ptr null, ptr %15, align 8
  %38 = getelementptr inbounds nuw i8, ptr %14, i64 8
  store i32 %36, ptr %38, align 8
  %.pre = load i32, ptr %2, align 8
  br label %gistUnloadNodeBuffer.exit

gistUnloadNodeBuffer.exit:                        ; preds = %10, %WriteTempFileBlock.exit.i
  %39 = phi i32 [ %11, %10 ], [ %.pre, %WriteTempFileBlock.exit.i ]
  %indvars.iv.next = add nuw nsw i64 %indvars.iv, 1
  %40 = sext i32 %39 to i64
  %41 = icmp slt i64 %indvars.iv.next, %40
  br i1 %41, label %10, label %._crit_edge, !llvm.loop !8

._crit_edge:                                      ; preds = %gistUnloadNodeBuffer.exit, %1
  store i32 0, ptr %2, align 8
  ret void
}